target datalayout = "e-m:e-p270:32:32-p271:32:32-p272:64:64-i64:64-i128:128-f80:128-n8:16:32:64-S128"
target triple = "x86_64-pc-linux-gnu"

%struct.PJconsts = type <{ ptr, ptr, ptr, ptr, ptr, ptr, ptr, ptr, ptr, ptr, ptr, ptr, i32, [4 x i8], ptr, ptr, ptr, ptr, ptr, ptr, ptr, ptr, double, double, double, double, double, double, double, double, double, double, double, double, double, double, double, double, double, double, double, double, double, double, i32, i32, i32, i32, i32, i32, i32, i32, i32, i32, i32, [4 x i8], ptr, ptr, ptr, ptr, ptr, ptr, double, double, double, double, double, double, double, double, double, double, double, i32, [4 x i8], [7 x double], i32, [4 x i8], ptr, ptr, double, double, i32, [4 x i8], %"class.std::shared_ptr", i8, [7 x i8], double, i8, [7 x i8], %"class.std::__cxx11::basic_string", %"class.std::__cxx11::basic_string", %"class.std::__cxx11::basic_string", i8, [7 x i8], %"class.std::vector", i32, [4 x i8], %"class.std::vector.3", i32, i8, i8, i8, i8 }>
%"class.std::shared_ptr" = type { %"class.std::__shared_ptr" }
%"class.std::__shared_ptr" = type { ptr, %"class.std::__shared_count" }
%"class.std::__shared_count" = type { ptr }
%"class.std::__cxx11::basic_string" = type { %"struct.std::__cxx11::basic_string<char>::_Alloc_hider", i64, %union.anon }
%"struct.std::__cxx11::basic_string<char>::_Alloc_hider" = type { ptr }
%union.anon = type { i64, [8 x i8] }
%"class.std::vector" = type { %"struct.std::_Vector_base" }
%"struct.std::_Vector_base" = type { %"struct.std::_Vector_base<osgeo::proj::operation::GridDescription, std::allocator<osgeo::proj::operation::GridDescription>>::_Vector_impl" }
%"struct.std::_Vector_base<osgeo::proj::operation::GridDescription, std::allocator<osgeo::proj::operation::GridDescription>>::_Vector_impl" = type { %"struct.std::_Vector_base<osgeo::proj::operation::GridDescription, std::allocator<osgeo::proj::operation::GridDescription>>::_Vector_impl_data" }
%"struct.std::_Vector_base<osgeo::proj::operation::GridDescription, std::allocator<osgeo::proj::operation::GridDescription>>::_Vector_impl_data" = type { ptr, ptr, ptr }
%"class.std::vector.3" = type { %"struct.std::_Vector_base.4" }
%"struct.std::_Vector_base.4" = type { %"struct.std::_Vector_base<PJCoordOperation, std::allocator<PJCoordOperation>>::_Vector_impl" }
%"struct.std::_Vector_base<PJCoordOperation, std::allocator<PJCoordOperation>>::_Vector_impl" = type { %"struct.std::_Vector_base<PJCoordOperation, std::allocator<PJCoordOperation>>::_Vector_impl_data" }
%"struct.std::_Vector_base<PJCoordOperation, std::allocator<PJCoordOperation>>::_Vector_impl_data" = type { ptr, ptr, ptr }
%"struct.(anonymous namespace)::pj_tpeqd" = type { double, double, double, double, double, double, double, double, double, double, double, double, double, double, double, double, double }
%struct.PJ_LP = type { double, double }
%struct.PJ_XY = type { double, double }

; Function Attrs: mustprogress uwtable
define internal { double, double } @_ZL15tpeqd_s_forward5PJ_LPP8PJconsts(double %0, double %1, ptr noundef %2) #0 {
  %4 = alloca %struct.PJ_XY, align 8
  %5 = alloca %struct.PJ_LP, align 8
  %6 = alloca ptr, align 8
  %7 = alloca ptr, align 8
  %8 = alloca double, align 8
  %9 = alloca double, align 8
  %10 = alloca double, align 8
  %11 = alloca double, align 8
  %12 = alloca double, align 8
  %13 = alloca double, align 8
  %14 = alloca double, align 8
  %15 = getelementptr inbounds { double, double }, ptr %5, i32 0, i32 0
  store double %0, ptr %15, align 8
  %16 = getelementptr inbounds { double, double }, ptr %5, i32 0, i32 1
  store double %1, ptr %16, align 8
  store ptr %2, ptr %6, align 8
  call void @llvm.memset.p0.i64(ptr align 8 %4, i8 0, i64 16, i1 false)
  %17 = load ptr, ptr %6, align 8
  %18 = getelementptr inbounds %struct.PJconsts, ptr %17, i32 0, i32 11
  %19 = load ptr, ptr %18, align 8
  store ptr %19, ptr %7, align 8
  %20 = getelementptr inbounds %struct.PJ_LP, ptr %5, i32 0, i32 1
  %21 = load double, ptr %20, align 8
  %22 = call double @sin(double noundef %21) #8
  store double %22, ptr %13, align 8
  %23 = getelementptr inbounds %struct.PJ_LP, ptr %5, i32 0, i32 1
  %24 = load double, ptr %23, align 8
  %25 = call double @cos(double noundef %24) #8
  store double %25, ptr %14, align 8
  %26 = load ptr, ptr %6, align 8
  %27 = getelementptr inbounds %struct.PJconsts, ptr %26, i32 0, i32 0
  %28 = load ptr, ptr %27, align 8
  %29 = load ptr, ptr %7, align 8
  %30 = getelementptr inbounds %"struct.(anonymous namespace)::pj_tpeqd", ptr %29, i32 0, i32 1
  %31 = load double, ptr %30, align 8
  %32 = load double, ptr %13, align 8
  %33 = load ptr, ptr %7, align 8
  %34 = getelementptr inbounds %"struct.(anonymous namespace)::pj_tpeqd", ptr %33, i32 0, i32 0
  %35 = load double, ptr %34, align 8
  %36 = load double, ptr %14, align 8
  %37 = fmul double %35, %36
  %38 = getelementptr inbounds %struct.PJ_LP, ptr %5, i32 0, i32 0
  %39 = load double, ptr %38, align 8
  %40 = load ptr, ptr %7, align 8
  %41 = getelementptr inbounds %"struct.(anonymous namespace)::pj_tpeqd", ptr %40, i32 0, i32 9
  %42 = load double, ptr %41, align 8
  %43 = fadd double %39, %42
  store double %43, ptr %11, align 8
  %44 = call double @cos(double noundef %43) #8
  %45 = fmul double %37, %44
  %46 = call double @llvm.fmuladd.f64(double %31, double %32, double %45)
  %47 = call noundef double @_Z5aacosP6pj_ctxd(ptr noundef %28, double noundef %46)
  store double %47, ptr %9, align 8
  %48 = load ptr, ptr %6, align 8
  %49 = getelementptr inbounds %struct.PJconsts, ptr %48, i32 0, i32 0
  %50 = load ptr, ptr %49, align 8
  %51 = load ptr, ptr %7, align 8
  %52 = getelementptr inbounds %"struct.(anonymous namespace)::pj_tpeqd", ptr %51, i32 0, i32 3
  %53 = load double, ptr %52, align 8
  %54 = load double, ptr %13, align 8
  %55 = load ptr, ptr %7, align 8
  %56 = getelementptr inbounds %"struct.(anonymous namespace)::pj_tpeqd", ptr %55, i32 0, i32 2
  %57 = load double, ptr %56, align 8
  %58 = load double, ptr %14, align 8
  %59 = fmul double %57, %58
  %60 = getelementptr inbounds %struct.PJ_LP, ptr %5, i32 0, i32 0
  %61 = load double, ptr %60, align 8
  %62 = load ptr, ptr %7, align 8
  %63 = getelementptr inbounds %"struct.(anonymous namespace)::pj_tpeqd", ptr %62, i32 0, i32 9
  %64 = load double, ptr %63, align 8
  %65 = fsub double %61, %64
  store double %65, ptr %12, align 8
  %66 = call double @cos(double noundef %65) #8
  %67 = fmul double %59, %66
  %68 = call double @llvm.fmuladd.f64(double %53, double %54, double %67)
  %69 = call noundef double @_Z5aacosP6pj_ctxd(ptr noundef %50, double noundef %68)
  store double %69, ptr %10, align 8
  %70 = load double, ptr %9, align 8
  %71 = load double, ptr %9, align 8
  %72 = fmul double %71, %70
  store double %72, ptr %9, align 8
  %73 = load double, ptr %10, align 8
  %74 = load double, ptr %10, align 8
  %75 = fmul double %74, %73
  store double %75, ptr %10, align 8
  %76 = load double, ptr %9, align 8
  %77 = load double, ptr %10, align 8
  %78 = fsub double %76, %77
  store double %78, ptr %8, align 8
  %79 = load ptr, ptr %7, align 8
  %80 = getelementptr inbounds %"struct.(anonymous namespace)::pj_tpeqd", ptr %79, i32 0, i32 7
  %81 = load double, ptr %80, align 8
  %82 = load double, ptr %8, align 8
  %83 = fmul double %81, %82
  %84 = getelementptr inbounds %struct.PJ_XY, ptr %4, i32 0, i32 0
  store double %83, ptr %84, align 8
  %85 = load ptr, ptr %7, align 8
  %86 = getelementptr inbounds %"struct.(anonymous namespace)::pj_tpeqd", ptr %85, i32 0, i32 8
  %87 = load double, ptr %86, align 8
  %88 = load double, ptr %8, align 8
  %89 = fsub double %87, %88
  store double %89, ptr %8, align 8
  %90 = load ptr, ptr %7, align 8
  %91 = getelementptr inbounds %"struct.(anonymous namespace)::pj_tpeqd", ptr %90, i32 0, i32 7
  %92 = load double, ptr %91, align 8
  %93 = load ptr, ptr %7, align 8
  %94 = getelementptr inbounds %"struct.(anonymous namespace)::pj_tpeqd", ptr %93, i32 0, i32 8
  %95 = load double, ptr %94, align 8
  %96 = fmul double 4.000000e+00, %95
  %97 = load double, ptr %10, align 8
  %98 = load double, ptr %8, align 8
  %99 = load double, ptr %8, align 8
  %100 = fmul double %98, %99
  %101 = fneg double %100
  %102 = call double @llvm.fmuladd.f64(double %96, double %97, double %101)
  %103 = call noundef double @_Z5asqrtd(double noundef %102)
  %104 = fmul double %92, %103
  %105 = getelementptr inbounds %struct.PJ_XY, ptr %4, i32 0, i32 1
  store double %104, ptr %105, align 8
  %106 = load ptr, ptr %7, align 8
  %107 = getelementptr inbounds %"struct.(anonymous namespace)::pj_tpeqd", ptr %106, i32 0, i32 4
  %108 = load double, ptr %107, align 8
  %109 = load double, ptr %13, align 8
  %110 = load double, ptr %14, align 8
  %111 = load ptr, ptr %7, align 8
  %112 = getelementptr inbounds %"struct.(anonymous namespace)::pj_tpeqd", ptr %111, i32 0, i32 5
  %113 = load double, ptr %112, align 8
  %114 = load double, ptr %11, align 8
  %115 = call double @sin(double noundef %114) #8
  %116 = load ptr, ptr %7, align 8
  %117 = getelementptr inbounds %"struct.(anonymous namespace)::pj_tpeqd", ptr %116, i32 0, i32 6
  %118 = load double, ptr %117, align 8
  %119 = load double, ptr %12, align 8
  %120 = call double @sin(double noundef %119) #8
  %121 = fmul double %118, %120
  %122 = fneg double %121
  %123 = call double @llvm.fmuladd.f64(double %113, double %115, double %122)
  %124 = fmul double %110, %123
  %125 = fneg double %124
  %126 = call double @llvm.fmuladd.f64(double %108, double %109, double %125)
  %127 = fcmp olt double %126, 0.000000e+00
  br i1 %127, label %128, label %133

128:                                              ; preds = %3
  %129 = getelementptr inbounds %struct.PJ_XY, ptr %4, i32 0, i32 1
  %130 = load double, ptr %129, align 8
  %131 = fneg double %130
  %132 = getelementptr inbounds %struct.PJ_XY, ptr %4, i32 0, i32 1
  store double %131, ptr %132, align 8
  br label %133

133:                                              ; preds = %128, %3
  %134 = load { double, double }, ptr %4, align 8
  ret { double, double } %134
}