; Function Attrs: mustprogress uwtable
define internal { double, double } @_ZL15tpeqd_s_forward5PJ_LPP8PJconsts(double %0, double %1, ptr nocapture noundef readonly %2) #0 {
  %4 = getelementptr inbounds i8, ptr %2, i64 88
  %5 = load ptr, ptr %4, align 8
  %6 = tail call double @sin(double noundef %1) #8
  %7 = tail call double @cos(double noundef %1) #8
  %8 = load ptr, ptr %2, align 8
  %9 = getelementptr inbounds i8, ptr %5, i64 8
  %10 = load double, ptr %9, align 8
  %11 = load double, ptr %5, align 8
  %12 = fmul double %7, %11
  %13 = getelementptr inbounds i8, ptr %5, i64 72
  %14 = load double, ptr %13, align 8
  %15 = fadd double %14, %0
  %16 = tail call double @cos(double noundef %15) #8
  %17 = fmul double %12, %16
  %18 = tail call double @llvm.fmuladd.f64(double %10, double %6, double %17)
  %19 = tail call noundef double @_Z5aacosP6pj_ctxd(ptr noundef %8, double noundef %18)
  %20 = load ptr, ptr %2, align 8
  %21 = getelementptr inbounds i8, ptr %5, i64 24
  %22 = load double, ptr %21, align 8
  %23 = getelementptr inbounds i8, ptr %5, i64 16
  %24 = load double, ptr %23, align 8
  %25 = fmul double %7, %24
  %26 = load double, ptr %13, align 8
  %27 = fsub double %0, %26
  %28 = tail call double @cos(double noundef %27) #8
  %29 = fmul double %25, %28
  %30 = tail call double @llvm.fmuladd.f64(double %22, double %6, double %29)
  %31 = tail call noundef double @_Z5aacosP6pj_ctxd(ptr noundef %20, double noundef %30)
  %32 = fmul double %19, %19
  %33 = fmul double %31, %31
  %34 = fsub double %32, %33
  %35 = getelementptr inbounds i8, ptr %5, i64 56
  %36 = load double, ptr %35, align 8
  %37 = getelementptr inbounds i8, ptr %5, i64 64
  %38 = load double, ptr %37, align 8
  %39 = fsub double %38, %34
  %40 = fmul double %38, 4.000000e+00
  %41 = fneg double %39
  %42 = fmul double %39, %41
  %43 = tail call double @llvm.fmuladd.f64(double %40, double %33, double %42)
  %44 = tail call noundef double @_Z5asqrtd(double noundef %43)
  %45 = fmul double %36, %44
  %46 = getelementptr inbounds i8, ptr %5, i64 32
  %47 = load double, ptr %46, align 8
  %48 = getelementptr inbounds i8, ptr %5, i64 40
  %49 = load double, ptr %48, align 8
  %50 = tail call double @sin(double noundef %15) #8
  %51 = getelementptr inbounds i8, ptr %5, i64 48
  %52 = load double, ptr %51, align 8
  %53 = tail call double @sin(double noundef %27) #8
  %54 = fneg double %52
  %55 = fmul double %53, %54
  %56 = tail call double @llvm.fmuladd.f64(double %49, double %50, double %55)
  %57 = fneg double %7
  %58 = fmul double %56, %57
  %59 = tail call double @llvm.fmuladd.f64(double %47, double %6, double %58)
  %60 = fcmp olt double %59, 0.000000e+00
  %61 = fneg double %45
  %.sroa.338.0 = select i1 %60, double %61, double %45
  %62 = fmul double %36, %34
  %.fca.0.insert = insertvalue { double, double } poison, double %62, 0
  %.fca.1.insert = insertvalue { double, double } %.fca.0.insert, double %.sroa.338.0, 1
  ret { double, double } %.fca.1.insert
}